ccopy_reg
_reconstructor
p0
(cgoogle.oauth2.credentials
Credentials
p1
c__builtin__
object
p2
Ntp3
Rp4
(dp5
S'_quota_project_id'
p6
NsS'_token_uri'
p7
Vhttps://oauth2.googleapis.com/token
p8
sS'_scopes'
p9
(lp10
S'https://www.googleapis.com/auth/drive'
p11
asS'_default_scopes'
p12
NsS'expiry'
p13
cdatetime
datetime
p14
(S'\x07\xe5\x08\n\x04.\x01\x00K\x99'
p15
tp16
Rp17
sS'token'
p18
Vya29.a0ARrdaM-rWATaTv6IBK2-Dqz-LxGAXgCEn4wKY-f_08ge27HCptucFdg80tlr45KbMOqNM2aVcZQmlemaHoU8jpI3XZPgaUQ1MfNtO64IDuBQJJp9hIq5OLTVsqXgVNypxusbkzT7d4KcR1NC30nJuY-7lR_I
p19
sS'_refresh_token'
p20
V1//0ekmAkxWiErSaCgYIARAAGA4SNwF-L9IrgQEQ8T37JHwiZrczQRGtfrwD8Cn1Z6mGlc0qsizewMXWlpV8lL-Kr0z3eb7mdaNvGt4
p21
sS'_client_secret'
p22
VxdesCVLN0368UjM8UJNyUBQh
p23
sS'_client_id'
p24
V1085185950542-dncdnbeka6f7seos3q5uhiarhh6hc1is.apps.googleusercontent.com
p25
sS'_id_token'
p26
NsS'_rapt_token'
p27
Nsb.